target datalayout = "e-m:e-p270:32:32-p271:32:32-p272:64:64-i64:64-i128:128-f80:128-n8:16:32:64-S128"
target triple = "x86_64-unknown-linux-gnu"

%"class.std::basic_istream" = type { ptr, i64, %"class.std::basic_ios" }
%"class.std::basic_ios" = type { %"class.std::ios_base", ptr, i8, i8, ptr, ptr, ptr, ptr }
%"class.std::ios_base" = type { ptr, i64, i64, i32, i32, i32, ptr, %"struct.std::ios_base::_Words", [8 x %"struct.std::ios_base::_Words"], i32, ptr, %"class.std::locale" }
%"struct.std::ios_base::_Words" = type { ptr, i64 }
%"class.std::locale" = type { ptr }
%"class.std::basic_ostream" = type { ptr, %"class.std::basic_ios" }
%class.veloxtpFlexLexer = type <{ %class.FlexLexer.base, i32, i32, [4 x i8], ptr, %"class.std::basic_istream", %"class.std::basic_ostream", i8, [3 x i8], i32, ptr, i32, i32, i32, [4 x i8], i64, i64, ptr, i32, [4 x i8], ptr, ptr, ptr, ptr, ptr, i32, i32, i32, i32, i32, i32, i32, [4 x i8] }>
%class.FlexLexer.base = type <{ ptr, ptr, i32, i32, i32 }>

@.str.10 = private unnamed_addr constant [32 x i8] c"start-condition stack underflow\00", align 1

; Function Attrs: mustprogress uwtable
define void @_ZN16veloxtpFlexLexer12yy_pop_stateEv(ptr noundef nonnull align 8 dereferenceable(732) %this) #5 align 2 {
entry:
  %this.addr = alloca ptr, align 8
  store ptr %this, ptr %this.addr, align 8
  %this1 = load ptr, ptr %this.addr, align 8
  %yy_start_stack_ptr = getelementptr inbounds %class.veloxtpFlexLexer, ptr %this1, i32 0, i32 1
  %0 = load i32, ptr %yy_start_stack_ptr, align 4
  %dec = add nsw i32 %0, -1
  store i32 %dec, ptr %yy_start_stack_ptr, align 4
  %cmp = icmp slt i32 %dec, 0
  br i1 %cmp, label %if.then, label %if.end

if.then:                                          ; preds = %entry
  %vtable = load ptr, ptr %this1, align 8
  %vfn = getelementptr inbounds ptr, ptr %vtable, i64 14
  %1 = load ptr, ptr %vfn, align 8
  call void %1(ptr noundef nonnull align 8 dereferenceable(732) %this1, ptr noundef @.str.10)
  br label %if.end

if.end:                                           ; preds = %if.then, %entry
  %yy_start_stack = getelementptr inbounds %class.veloxtpFlexLexer, ptr %this1, i32 0, i32 4
  %2 = load ptr, ptr %yy_start_stack, align 8
  %yy_start_stack_ptr2 = getelementptr inbounds %class.veloxtpFlexLexer, ptr %this1, i32 0, i32 1
  %3 = load i32, ptr %yy_start_stack_ptr2, align 4
  %idxprom = sext i32 %3 to i64
  %arrayidx = getelementptr inbounds i32, ptr %2, i64 %idxprom
  %4 = load i32, ptr %arrayidx, align 4
  %mul = mul nsw i32 2, %4
  %add = add nsw i32 1, %mul
  %yy_start = getelementptr inbounds %class.veloxtpFlexLexer, ptr %this1, i32 0, i32 12
  store i32 %add, ptr %yy_start, align 4
  ret void
}