; Function Attrs: mustprogress uwtable
define void @_ZN16veloxtpFlexLexer12yy_pop_stateEv(ptr noundef nonnull align 8 dereferenceable(732) %this) local_unnamed_addr #4 align 2 {
entry:
  %yy_start_stack_ptr = getelementptr inbounds i8, ptr %this, i64 28
  %0 = load i32, ptr %yy_start_stack_ptr, align 4
  %dec = add nsw i32 %0, -1
  store i32 %dec, ptr %yy_start_stack_ptr, align 4
  %cmp = icmp slt i32 %0, 1
  br i1 %cmp, label %if.then, label %if.end

if.then:                                          ; preds = %entry
  %vtable = load ptr, ptr %this, align 8
  %vfn = getelementptr inbounds i8, ptr %vtable, i64 112
  %1 = load ptr, ptr %vfn, align 8
  tail call void %1(ptr noundef nonnull align 8 dereferenceable(732) %this, ptr noundef nonnull @.str.10)
  %.pre = load i32, ptr %yy_start_stack_ptr, align 4
  br label %if.end

if.end:                                           ; preds = %if.then, %entry
  %2 = phi i32 [ %.pre, %if.then ], [ %dec, %entry ]
  %yy_start_stack = getelementptr inbounds i8, ptr %this, i64 40
  %3 = load ptr, ptr %yy_start_stack, align 8
  %idxprom = sext i32 %2 to i64
  %arrayidx = getelementptr inbounds i32, ptr %3, i64 %idxprom
  %4 = load i32, ptr %arrayidx, align 4
  %mul = shl nsw i32 %4, 1
  %add = or disjoint i32 %mul, 1
  %yy_start = getelementptr inbounds i8, ptr %this, i64 620
  store i32 %add, ptr %yy_start, align 4
  ret void
}